; Function Attrs: mustprogress nounwind uwtable
define internal void @"_ZN4node13CallbackQueueIvJPNS_11EnvironmentEEE12CallbackImplIZNS_6crypto7TLSWrap7DoWriteEPNS_9WriteWrapEP8uv_buf_tmP11uv_stream_sE3$_0ED0Ev"(ptr noundef nonnull align 8 dereferenceable(40) %this) unnamed_addr #3 align 2 {
entry:
  %0 = getelementptr inbounds i8, ptr %this, i64 32
  %callback_.val.i = load ptr, ptr %0, align 8
  %cmp.not.i.i.i = icmp eq ptr %callback_.val.i, null
  br i1 %cmp.not.i.i.i, label %"_ZZN4node6crypto7TLSWrap7DoWriteEPNS_9WriteWrapEP8uv_buf_tmP11uv_stream_sEN3$_0D2Ev.exit.i", label %if.then.i.i.i

if.then.i.i.i:                                    ; preds = %entry
  tail call void @_ZN4node10BaseObject17decrease_refcountEv(ptr noundef nonnull align 8 dereferenceable(32) %callback_.val.i) #23
  br label %"_ZZN4node6crypto7TLSWrap7DoWriteEPNS_9WriteWrapEP8uv_buf_tmP11uv_stream_sEN3$_0D2Ev.exit.i"

"_ZZN4node6crypto7TLSWrap7DoWriteEPNS_9WriteWrapEP8uv_buf_tmP11uv_stream_sEN3$_0D2Ev.exit.i": ; preds = %if.then.i.i.i, %entry
  store ptr getelementptr inbounds ({ [5 x ptr] }, ptr @_ZTVN4node13CallbackQueueIvJPNS_11EnvironmentEEE8CallbackE, i64 0, i32 0, i64 2), ptr %this, align 8
  %next_.i.i = getelementptr inbounds i8, ptr %this, i64 16
  %1 = load ptr, ptr %next_.i.i, align 8
  %cmp.not.i.i1.i = icmp eq ptr %1, null
  br i1 %cmp.not.i.i1.i, label %"_ZN4node13CallbackQueueIvJPNS_11EnvironmentEEE12CallbackImplIZNS_6crypto7TLSWrap7DoWriteEPNS_9WriteWrapEP8uv_buf_tmP11uv_stream_sE3$_0ED2Ev.exit", label %_ZNKSt14default_deleteIN4node13CallbackQueueIvJPNS0_11EnvironmentEEE8CallbackEEclEPS5_.exit.i.i.i

_ZNKSt14default_deleteIN4node13CallbackQueueIvJPNS0_11EnvironmentEEE8CallbackEEclEPS5_.exit.i.i.i: ; preds = %"_ZZN4node6crypto7TLSWrap7DoWriteEPNS_9WriteWrapEP8uv_buf_tmP11uv_stream_sEN3$_0D2Ev.exit.i"
  %vtable.i.i.i.i = load ptr, ptr %1, align 8
  %vfn.i.i.i.i = getelementptr inbounds i8, ptr %vtable.i.i.i.i, i64 8
  %2 = load ptr, ptr %vfn.i.i.i.i, align 8
  tail call void %2(ptr noundef nonnull align 8 dereferenceable(24) %1) #23
  br label %"_ZN4node13CallbackQueueIvJPNS_11EnvironmentEEE12CallbackImplIZNS_6crypto7TLSWrap7DoWriteEPNS_9WriteWrapEP8uv_buf_tmP11uv_stream_sE3$_0ED2Ev.exit"

"_ZN4node13CallbackQueueIvJPNS_11EnvironmentEEE12CallbackImplIZNS_6crypto7TLSWrap7DoWriteEPNS_9WriteWrapEP8uv_buf_tmP11uv_stream_sE3$_0ED2Ev.exit": ; preds = %"_ZZN4node6crypto7TLSWrap7DoWriteEPNS_9WriteWrapEP8uv_buf_tmP11uv_stream_sEN3$_0D2Ev.exit.i", %_ZNKSt14default_deleteIN4node13CallbackQueueIvJPNS0_11EnvironmentEEE8CallbackEEclEPS5_.exit.i.i.i
  tail call void @_ZdlPv(ptr noundef nonnull %this) #26
  ret void
}